; Function Attrs: mustprogress nofree norecurse nosync nounwind willreturn memory(readwrite, inaccessiblemem: none) uwtable
define hidden void @_ZN9Assembler20emit_prefix_and_int8Eii(ptr nocapture noundef nonnull readonly align 8 dereferenceable(40) %0, i32 noundef %1, i32 noundef %2) local_unnamed_addr #8 align 2 {
  %4 = and i32 %1, 65280
  %5 = icmp eq i32 %4, 0
  br i1 %5, label %6, label %13

6:                                                ; preds = %3
  %7 = getelementptr inbounds i8, ptr %0, i64 8
  %8 = load ptr, ptr %7, align 8
  %.0.i.i = trunc i32 %1 to i8
  %.0.i2.i = trunc i32 %2 to i8
  %9 = getelementptr inbounds i8, ptr %8, i64 16
  %10 = load ptr, ptr %9, align 8
  %11 = getelementptr inbounds i8, ptr %10, i64 1
  store i8 %.0.i.i, ptr %10, align 1
  %12 = getelementptr inbounds i8, ptr %10, i64 2
  store i8 %.0.i2.i, ptr %11, align 1
  store ptr %12, ptr %9, align 8
  br label %22

13:                                               ; preds = %3
  %14 = lshr i32 %1, 8
  %15 = getelementptr inbounds i8, ptr %0, i64 8
  %16 = load ptr, ptr %15, align 8
  %.0.i.i6 = trunc i32 %14 to i8
  %.0.i3.i = trunc i32 %1 to i8
  %.0.i4.i = trunc i32 %2 to i8
  %17 = getelementptr inbounds i8, ptr %16, i64 16
  %18 = load ptr, ptr %17, align 8
  %19 = getelementptr inbounds i8, ptr %18, i64 1
  store i8 %.0.i.i6, ptr %18, align 1
  %20 = getelementptr inbounds i8, ptr %18, i64 2
  store i8 %.0.i3.i, ptr %19, align 1
  %21 = getelementptr inbounds i8, ptr %18, i64 3
  store i8 %.0.i4.i, ptr %20, align 1
  store ptr %21, ptr %17, align 8
  br label %22

22:                                               ; preds = %13, %6
  ret void
}